target datalayout = "e-m:e-p270:32:32-p271:32:32-p272:64:64-i64:64-i128:128-f80:128-n8:16:32:64-S128"
target triple = "x86_64-pc-linux-gnu"

%struct.VP8Histogram = type { i32, i32 }

; Function Attrs: nounwind uwtable
define hidden void @VP8SetHistogramData(ptr noundef %0, ptr noundef %1) #0 {
  %3 = alloca ptr, align 8
  %4 = alloca ptr, align 8
  %5 = alloca i32, align 4
  %6 = alloca i32, align 4
  %7 = alloca i32, align 4
  %8 = alloca i32, align 4
  store ptr %0, ptr %3, align 8, !tbaa !3
  store ptr %1, ptr %4, align 8, !tbaa !8
  call void @llvm.lifetime.start.p0(i64 4, ptr %5) #8
  store i32 0, ptr %5, align 4, !tbaa !9
  call void @llvm.lifetime.start.p0(i64 4, ptr %6) #8
  store i32 1, ptr %6, align 4, !tbaa !9
  call void @llvm.lifetime.start.p0(i64 4, ptr %7) #8
  store i32 0, ptr %7, align 4, !tbaa !9
  br label %9

9:                                                ; preds = %29, %2
  %10 = load i32, ptr %7, align 4, !tbaa !9
  %11 = icmp sle i32 %10, 31
  br i1 %11, label %12, label %32

12:                                               ; preds = %9
  call void @llvm.lifetime.start.p0(i64 4, ptr %8) #8
  %13 = load ptr, ptr %3, align 8, !tbaa !3
  %14 = load i32, ptr %7, align 4, !tbaa !9
  %15 = sext i32 %14 to i64
  %16 = getelementptr inbounds i32, ptr %13, i64 %15
  %17 = load i32, ptr %16, align 4, !tbaa !9
  store i32 %17, ptr %8, align 4, !tbaa !9
  %18 = load i32, ptr %8, align 4, !tbaa !9
  %19 = icmp sgt i32 %18, 0
  br i1 %19, label %20, label %28

20:                                               ; preds = %12
  %21 = load i32, ptr %8, align 4, !tbaa !9
  %22 = load i32, ptr %5, align 4, !tbaa !9
  %23 = icmp sgt i32 %21, %22
  br i1 %23, label %24, label %26

24:                                               ; preds = %20
  %25 = load i32, ptr %8, align 4, !tbaa !9
  store i32 %25, ptr %5, align 4, !tbaa !9
  br label %26

26:                                               ; preds = %24, %20
  %27 = load i32, ptr %7, align 4, !tbaa !9
  store i32 %27, ptr %6, align 4, !tbaa !9
  br label %28

28:                                               ; preds = %26, %12
  call void @llvm.lifetime.end.p0(i64 4, ptr %8) #8
  br label %29

29:                                               ; preds = %28
  %30 = load i32, ptr %7, align 4, !tbaa !9
  %31 = add nsw i32 %30, 1
  store i32 %31, ptr %7, align 4, !tbaa !9
  br label %9, !llvm.loop !11

32:                                               ; preds = %9
  %33 = load i32, ptr %5, align 4, !tbaa !9
  %34 = load ptr, ptr %4, align 8, !tbaa !8
  %35 = getelementptr inbounds nuw %struct.VP8Histogram, ptr %34, i32 0, i32 0
  store i32 %33, ptr %35, align 4, !tbaa !13
  %36 = load i32, ptr %6, align 4, !tbaa !9
  %37 = load ptr, ptr %4, align 8, !tbaa !8
  %38 = getelementptr inbounds nuw %struct.VP8Histogram, ptr %37, i32 0, i32 1
  store i32 %36, ptr %38, align 4, !tbaa !15
  call void @llvm.lifetime.end.p0(i64 4, ptr %7) #8
  call void @llvm.lifetime.end.p0(i64 4, ptr %6) #8
  call void @llvm.lifetime.end.p0(i64 4, ptr %5) #8
  ret void
}