; Function Attrs: nofree norecurse nosync nounwind memory(argmem: readwrite) uwtable
define hidden void @VP8SetHistogramData(ptr noundef readonly captures(none) %0, ptr noundef writeonly captures(none) %1) local_unnamed_addr #0 {
  br label %3

3:                                                ; preds = %2, %3
  %indvars.iv = phi i64 [ 0, %2 ], [ %indvars.iv.next, %3 ]
  %.018 = phi i32 [ 0, %2 ], [ %.1, %3 ]
  %.01316 = phi i32 [ 1, %2 ], [ %.114, %3 ]
  %4 = getelementptr inbounds nuw i32, ptr %0, i64 %indvars.iv
  %5 = load i32, ptr %4, align 4, !tbaa !3
  %6 = icmp sgt i32 %5, 0
  %spec.select = tail call i32 @llvm.smax.i32(i32 %5, i32 %.018)
  %7 = trunc nuw nsw i64 %indvars.iv to i32
  %.114 = select i1 %6, i32 %7, i32 %.01316
  %.1 = select i1 %6, i32 %spec.select, i32 %.018
  %indvars.iv.next = add nuw nsw i64 %indvars.iv, 1
  %exitcond.not = icmp eq i64 %indvars.iv.next, 32
  br i1 %exitcond.not, label %8, label %3, !llvm.loop !7

8:                                                ; preds = %3
  store i32 %.1, ptr %1, align 4, !tbaa !9
  %9 = getelementptr inbounds nuw i8, ptr %1, i64 4
  store i32 %.114, ptr %9, align 4, !tbaa !11
  ret void
}